; Function Attrs: nounwind uwtable
define internal noundef ptr @My_PyObj_FromPtr(ptr readnone captures(none) %0, ptr noundef %1) #0 {
  %3 = alloca ptr, align 8
  call void @llvm.lifetime.start.p0(i64 8, ptr nonnull %3) #10
  %4 = call i32 (ptr, ptr, ...) @PyArg_ParseTuple(ptr noundef %1, ptr noundef nonnull @.str.87, ptr noundef nonnull @converter, ptr noundef nonnull %3) #10
  %.not = icmp eq i32 %4, 0
  br i1 %.not, label %_Py_NewRef.exit, label %5

5:                                                ; preds = %2
  %6 = load ptr, ptr %3, align 8, !tbaa !3
  %7 = call i32 (ptr, ptr, ...) @PySys_Audit(ptr noundef nonnull @.str.88, ptr noundef nonnull @.str.83, ptr noundef %6) #10
  %8 = icmp slt i32 %7, 0
  br i1 %8, label %_Py_NewRef.exit, label %9

9:                                                ; preds = %5
  %10 = load ptr, ptr %3, align 8, !tbaa !3
  %11 = load i32, ptr %10, align 8, !tbaa !11
  %12 = icmp slt i32 %11, 0
  br i1 %12, label %_Py_NewRef.exit, label %13

13:                                               ; preds = %9
  %14 = add nuw i32 %11, 1
  store i32 %14, ptr %10, align 8, !tbaa !11
  br label %_Py_NewRef.exit

_Py_NewRef.exit:                                  ; preds = %13, %9, %5, %2
  %.0 = phi ptr [ null, %2 ], [ null, %5 ], [ %10, %9 ], [ %10, %13 ]
  call void @llvm.lifetime.end.p0(i64 8, ptr nonnull %3) #10
  ret ptr %.0
}